target datalayout = "e-m:e-p270:32:32-p271:32:32-p272:64:64-i64:64-i128:128-f80:128-n8:16:32:64-S128"
target triple = "x86_64-pc-linux-gnu"

%struct.ssl_st = type { i32, i16, i16, ptr, ptr, ptr, ptr, ptr, i32, i32, ptr, ptr, i32, i32, ptr, ptr, ptr, ptr, ptr, ptr, ptr, ptr, i32, i32, [32 x i8], ptr, ptr, ptr, ptr, ptr, ptr, ptr, i64, %struct.crypto_ex_data_st, ptr, i32, i32, i32, i32, i16, ptr, i32, i64, ptr, ptr, ptr, ptr, ptr, ptr, i32, i32, ptr, ptr, i8, i8, i32 }
%struct.crypto_ex_data_st = type { ptr }
%struct.env_md_ctx_st = type { ptr, ptr, ptr, ptr }
%struct.ssl_ctx_st = type { ptr, %union.crypto_mutex_st, i16, i16, ptr, ptr, ptr, ptr, ptr, ptr, i64, ptr, ptr, i32, i32, i64, ptr, ptr, ptr, i32, ptr, ptr, ptr, ptr, ptr, ptr, %struct.crypto_ex_data_st, ptr, ptr, ptr, ptr, i32, i32, i32, ptr, ptr, ptr, i32, i32, [32 x i8], ptr, ptr, ptr, ptr, i16, ptr, ptr, [16 x i8], [16 x i8], [16 x i8], ptr, ptr, ptr, ptr, i8, ptr, ptr, ptr, ptr, ptr, ptr, ptr, i32, ptr, i64, ptr, ptr, ptr, i64, ptr, i64, ptr, ptr, i8, ptr, i32 }
%union.crypto_mutex_st = type { double, [48 x i8] }
%struct.hmac_ctx_st = type { ptr, %struct.env_md_ctx_st, %struct.env_md_ctx_st, %struct.env_md_ctx_st }
%struct.evp_cipher_ctx_st = type { ptr, ptr, ptr, i32, i32, i32, [16 x i8], [16 x i8], [32 x i8], i32, i32, i32, i32, [32 x i8] }
%struct.ssl_session_st = type { i32, i32, i32, i32, [48 x i8], i32, [32 x i8], i32, [32 x i8], ptr, ptr, ptr, i64, i64, i64, ptr, %struct.crypto_ex_data_st, ptr, ptr, ptr, ptr, i64, i64, ptr, i64, ptr, [32 x i8], [64 x i8], i32, i32, i8 }

; Function Attrs: nounwind uwtable
define hidden i32 @tls_process_ticket(ptr noundef %0, ptr noundef %1, ptr noundef %2, ptr noundef %3, i64 noundef %4, ptr noundef %5, i64 noundef %6) #0 {
  %8 = alloca i32, align 4
  %9 = alloca ptr, align 8
  %10 = alloca ptr, align 8
  %11 = alloca ptr, align 8
  %12 = alloca ptr, align 8
  %13 = alloca i64, align 8
  %14 = alloca ptr, align 8
  %15 = alloca i64, align 8
  %16 = alloca i32, align 4
  %17 = alloca ptr, align 8
  %18 = alloca ptr, align 8
  %19 = alloca %struct.hmac_ctx_st, align 8
  %20 = alloca %struct.evp_cipher_ctx_st, align 8
  %21 = alloca ptr, align 8
  %22 = alloca i32, align 4
  %23 = alloca i32, align 4
  %24 = alloca i64, align 8
  %25 = alloca [64 x i8], align 16
  %26 = alloca i64, align 8
  %27 = alloca ptr, align 8
  %28 = alloca i64, align 8
  %29 = alloca i32, align 4
  %30 = alloca i32, align 4
  %31 = alloca ptr, align 8
  store ptr %0, ptr %9, align 8, !tbaa !69
  store ptr %1, ptr %10, align 8, !tbaa !155
  store ptr %2, ptr %11, align 8, !tbaa !93
  store ptr %3, ptr %12, align 8, !tbaa !55
  store i64 %4, ptr %13, align 8, !tbaa !56
  store ptr %5, ptr %14, align 8, !tbaa !55
  store i64 %6, ptr %15, align 8, !tbaa !56
  call void @llvm.lifetime.start.p0(i64 4, ptr %16) #8
  store i32 1, ptr %16, align 4, !tbaa !58
  call void @llvm.lifetime.start.p0(i64 8, ptr %17) #8
  %32 = load ptr, ptr %9, align 8, !tbaa !69
  %33 = getelementptr inbounds nuw %struct.ssl_st, ptr %32, i32 0, i32 44
  %34 = load ptr, ptr %33, align 8, !tbaa !151
  store ptr %34, ptr %17, align 8, !tbaa !157
  call void @llvm.lifetime.start.p0(i64 8, ptr %18) #8
  store ptr null, ptr %18, align 8, !tbaa !55
  call void @llvm.lifetime.start.p0(i64 104, ptr %19) #8
  call void @HMAC_CTX_init(ptr noundef %19)
  call void @llvm.lifetime.start.p0(i64 152, ptr %20) #8
  call void @EVP_CIPHER_CTX_init(ptr noundef %20)
  %35 = load ptr, ptr %11, align 8, !tbaa !93
  store i32 0, ptr %35, align 4, !tbaa !58
  %36 = load ptr, ptr %10, align 8, !tbaa !155
  store ptr null, ptr %36, align 8, !tbaa !158
  %37 = load i64, ptr %15, align 8, !tbaa !56
  %38 = icmp ugt i64 %37, 32
  br i1 %38, label %39, label %40

39:                                               ; preds = %7
  br label %187

40:                                               ; preds = %7
  %41 = load i64, ptr %13, align 8, !tbaa !56
  %42 = icmp ult i64 %41, 32
  br i1 %42, label %43, label %44

43:                                               ; preds = %40
  br label %187

44:                                               ; preds = %40
  %45 = load ptr, ptr %12, align 8, !tbaa !55
  %46 = getelementptr inbounds i8, ptr %45, i64 16
  store ptr %46, ptr %21, align 8, !tbaa !55
  %47 = load ptr, ptr %17, align 8, !tbaa !157
  %48 = getelementptr inbounds nuw %struct.ssl_ctx_st, ptr %47, i32 0, i32 50
  %49 = load ptr, ptr %48, align 8, !tbaa !159
  %50 = icmp ne ptr %49, null
  br i1 %50, label %51, label %75

51:                                               ; preds = %44
  call void @llvm.lifetime.start.p0(i64 4, ptr %22) #8
  %52 = load ptr, ptr %17, align 8, !tbaa !157
  %53 = getelementptr inbounds nuw %struct.ssl_ctx_st, ptr %52, i32 0, i32 50
  %54 = load ptr, ptr %53, align 8, !tbaa !159
  %55 = load ptr, ptr %9, align 8, !tbaa !69
  %56 = load ptr, ptr %12, align 8, !tbaa !55
  %57 = load ptr, ptr %21, align 8, !tbaa !55
  %58 = call i32 %54(ptr noundef %55, ptr noundef %56, ptr noundef %57, ptr noundef %20, ptr noundef %19, i32 noundef 0)
  store i32 %58, ptr %22, align 4, !tbaa !58
  %59 = load i32, ptr %22, align 4, !tbaa !58
  %60 = icmp slt i32 %59, 0
  br i1 %60, label %61, label %62

61:                                               ; preds = %51
  store i32 0, ptr %16, align 4, !tbaa !58
  store i32 2, ptr %23, align 4
  br label %72

62:                                               ; preds = %51
  %63 = load i32, ptr %22, align 4, !tbaa !58
  %64 = icmp eq i32 %63, 0
  br i1 %64, label %65, label %66

65:                                               ; preds = %62
  store i32 2, ptr %23, align 4
  br label %72

66:                                               ; preds = %62
  %67 = load i32, ptr %22, align 4, !tbaa !58
  %68 = icmp eq i32 %67, 2
  br i1 %68, label %69, label %71

69:                                               ; preds = %66
  %70 = load ptr, ptr %11, align 8, !tbaa !93
  store i32 1, ptr %70, align 4, !tbaa !58
  br label %71

71:                                               ; preds = %69, %66
  store i32 0, ptr %23, align 4
  br label %72

72:                                               ; preds = %65, %61, %71
  call void @llvm.lifetime.end.p0(i64 4, ptr %22) #8
  %73 = load i32, ptr %23, align 4
  switch i32 %73, label %191 [
    i32 0, label %74
    i32 2, label %187
  ]

74:                                               ; preds = %72
  br label %100

75:                                               ; preds = %44
  %76 = load ptr, ptr %12, align 8, !tbaa !55
  %77 = load ptr, ptr %17, align 8, !tbaa !157
  %78 = getelementptr inbounds nuw %struct.ssl_ctx_st, ptr %77, i32 0, i32 47
  %79 = getelementptr inbounds [16 x i8], ptr %78, i64 0, i64 0
  %80 = call i32 @memcmp(ptr noundef %76, ptr noundef %79, i64 noundef 16) #10
  %81 = icmp ne i32 %80, 0
  br i1 %81, label %82, label %83

82:                                               ; preds = %75
  br label %187

83:                                               ; preds = %75
  %84 = load ptr, ptr %17, align 8, !tbaa !157
  %85 = getelementptr inbounds nuw %struct.ssl_ctx_st, ptr %84, i32 0, i32 48
  %86 = getelementptr inbounds [16 x i8], ptr %85, i64 0, i64 0
  %87 = call ptr @EVP_sha256()
  %88 = call i32 @HMAC_Init_ex(ptr noundef %19, ptr noundef %86, i64 noundef 16, ptr noundef %87, ptr noundef null)
  %89 = icmp ne i32 %88, 0
  br i1 %89, label %90, label %98

90:                                               ; preds = %83
  %91 = call ptr @EVP_aes_128_cbc()
  %92 = load ptr, ptr %17, align 8, !tbaa !157
  %93 = getelementptr inbounds nuw %struct.ssl_ctx_st, ptr %92, i32 0, i32 49
  %94 = getelementptr inbounds [16 x i8], ptr %93, i64 0, i64 0
  %95 = load ptr, ptr %21, align 8, !tbaa !55
  %96 = call i32 @EVP_DecryptInit_ex(ptr noundef %20, ptr noundef %91, ptr noundef null, ptr noundef %94, ptr noundef %95)
  %97 = icmp ne i32 %96, 0
  br i1 %97, label %99, label %98

98:                                               ; preds = %90, %83
  store i32 0, ptr %16, align 4, !tbaa !58
  br label %187

99:                                               ; preds = %90
  br label %100

100:                                              ; preds = %99, %74
  %101 = call i32 @EVP_CIPHER_CTX_iv_length(ptr noundef %20)
  %102 = zext i32 %101 to i64
  store i64 %102, ptr %24, align 8, !tbaa !56
  %103 = call i64 @HMAC_size(ptr noundef %19)
  store i64 %103, ptr %26, align 8, !tbaa !56
  %104 = load i64, ptr %13, align 8, !tbaa !56
  %105 = load i64, ptr %24, align 8, !tbaa !56
  %106 = add i64 16, %105
  %107 = add i64 %106, 1
  %108 = load i64, ptr %26, align 8, !tbaa !56
  %109 = add i64 %107, %108
  %110 = icmp ult i64 %104, %109
  br i1 %110, label %111, label %112

111:                                              ; preds = %100
  br label %187

112:                                              ; preds = %100
  %113 = load ptr, ptr %12, align 8, !tbaa !55
  %114 = load i64, ptr %13, align 8, !tbaa !56
  %115 = load i64, ptr %26, align 8, !tbaa !56
  %116 = sub i64 %114, %115
  %117 = call i32 @HMAC_Update(ptr noundef %19, ptr noundef %113, i64 noundef %116)
  %118 = getelementptr inbounds [64 x i8], ptr %25, i64 0, i64 0
  %119 = call i32 @HMAC_Final(ptr noundef %19, ptr noundef %118, ptr noundef null)
  %120 = getelementptr inbounds [64 x i8], ptr %25, i64 0, i64 0
  %121 = load ptr, ptr %12, align 8, !tbaa !55
  %122 = load i64, ptr %13, align 8, !tbaa !56
  %123 = load i64, ptr %26, align 8, !tbaa !56
  %124 = sub i64 %122, %123
  %125 = getelementptr inbounds nuw i8, ptr %121, i64 %124
  %126 = load i64, ptr %26, align 8, !tbaa !56
  %127 = call i32 @CRYPTO_memcmp(ptr noundef %120, ptr noundef %125, i64 noundef %126)
  %128 = icmp ne i32 %127, 0
  br i1 %128, label %129, label %130

129:                                              ; preds = %112
  br label %187

130:                                              ; preds = %112
  %131 = load ptr, ptr %12, align 8, !tbaa !55
  %132 = getelementptr inbounds i8, ptr %131, i64 16
  %133 = load i64, ptr %24, align 8, !tbaa !56
  %134 = getelementptr inbounds nuw i8, ptr %132, i64 %133
  store ptr %134, ptr %27, align 8, !tbaa !55
  %135 = load i64, ptr %13, align 8, !tbaa !56
  %136 = sub i64 %135, 16
  %137 = load i64, ptr %24, align 8, !tbaa !56
  %138 = sub i64 %136, %137
  %139 = load i64, ptr %26, align 8, !tbaa !56
  %140 = sub i64 %138, %139
  store i64 %140, ptr %28, align 8, !tbaa !56
  %141 = load i64, ptr %28, align 8, !tbaa !56
  %142 = call noalias ptr @malloc(i64 noundef %141) #9
  store ptr %142, ptr %18, align 8, !tbaa !55
  %143 = load ptr, ptr %18, align 8, !tbaa !55
  %144 = icmp eq ptr %143, null
  br i1 %144, label %145, label %146

145:                                              ; preds = %130
  store i32 0, ptr %16, align 4, !tbaa !58
  br label %187

146:                                              ; preds = %130
  %147 = load i64, ptr %28, align 8, !tbaa !56
  %148 = icmp uge i64 %147, 2147483647
  br i1 %148, label %149, label %150

149:                                              ; preds = %146
  br label %187

150:                                              ; preds = %146
  %151 = load ptr, ptr %18, align 8, !tbaa !55
  %152 = load ptr, ptr %27, align 8, !tbaa !55
  %153 = load i64, ptr %28, align 8, !tbaa !56
  %154 = trunc i64 %153 to i32
  %155 = call i32 @EVP_DecryptUpdate(ptr noundef %20, ptr noundef %151, ptr noundef %29, ptr noundef %152, i32 noundef %154)
  %156 = icmp ne i32 %155, 0
  br i1 %156, label %157, label %164

157:                                              ; preds = %150
  %158 = load ptr, ptr %18, align 8, !tbaa !55
  %159 = load i32, ptr %29, align 4, !tbaa !58
  %160 = sext i32 %159 to i64
  %161 = getelementptr inbounds i8, ptr %158, i64 %160
  %162 = call i32 @EVP_DecryptFinal_ex(ptr noundef %20, ptr noundef %161, ptr noundef %30)
  %163 = icmp ne i32 %162, 0
  br i1 %163, label %165, label %164

164:                                              ; preds = %157, %150
  call void @ERR_clear_error()
  br label %187

165:                                              ; preds = %157
  %166 = load ptr, ptr %18, align 8, !tbaa !55
  %167 = load i32, ptr %29, align 4, !tbaa !58
  %168 = load i32, ptr %30, align 4, !tbaa !58
  %169 = add nsw i32 %167, %168
  %170 = sext i32 %169 to i64
  %171 = call ptr @SSL_SESSION_from_bytes(ptr noundef %166, i64 noundef %170)
  store ptr %171, ptr %31, align 8, !tbaa !158
  %172 = load ptr, ptr %31, align 8, !tbaa !158
  %173 = icmp eq ptr %172, null
  br i1 %173, label %174, label %175

174:                                              ; preds = %165
  call void @ERR_clear_error()
  br label %187

175:                                              ; preds = %165
  %176 = load ptr, ptr %31, align 8, !tbaa !158
  %177 = getelementptr inbounds nuw %struct.ssl_session_st, ptr %176, i32 0, i32 6
  %178 = getelementptr inbounds [32 x i8], ptr %177, i64 0, i64 0
  %179 = load ptr, ptr %14, align 8, !tbaa !55
  %180 = load i64, ptr %15, align 8, !tbaa !56
  call void @llvm.memcpy.p0.p0.i64(ptr align 4 %178, ptr align 1 %179, i64 %180, i1 false)
  %181 = load i64, ptr %15, align 8, !tbaa !56
  %182 = trunc i64 %181 to i32
  %183 = load ptr, ptr %31, align 8, !tbaa !158
  %184 = getelementptr inbounds nuw %struct.ssl_session_st, ptr %183, i32 0, i32 5
  store i32 %182, ptr %184, align 8, !tbaa !160
  %185 = load ptr, ptr %31, align 8, !tbaa !158
  %186 = load ptr, ptr %10, align 8, !tbaa !155
  store ptr %185, ptr %186, align 8, !tbaa !158
  br label %187

187:                                              ; preds = %175, %72, %174, %164, %149, %145, %129, %111, %98, %82, %43, %39
  %188 = load ptr, ptr %18, align 8, !tbaa !55
  call void @free(ptr noundef %188) #8
  call void @HMAC_CTX_cleanup(ptr noundef %19)
  %189 = call i32 @EVP_CIPHER_CTX_cleanup(ptr noundef %20)
  %190 = load i32, ptr %16, align 4, !tbaa !58
  store i32 %190, ptr %8, align 4
  store i32 1, ptr %23, align 4
  br label %191

191:                                              ; preds = %187, %72
  call void @llvm.lifetime.end.p0(i64 152, ptr %20) #8
  call void @llvm.lifetime.end.p0(i64 104, ptr %19) #8
  call void @llvm.lifetime.end.p0(i64 8, ptr %18) #8
  call void @llvm.lifetime.end.p0(i64 8, ptr %17) #8
  call void @llvm.lifetime.end.p0(i64 4, ptr %16) #8
  %192 = load i32, ptr %8, align 4
  ret i32 %192
}