; Function Attrs: nounwind uwtable
define hidden range(i32 0, 2) i32 @tls_process_ticket(ptr noundef %0, ptr noundef writeonly captures(none) initializes((0, 8)) %1, ptr noundef writeonly captures(none) initializes((0, 4)) %2, ptr noundef %3, i64 noundef %4, ptr noundef readonly captures(none) %5, i64 noundef %6) local_unnamed_addr #0 {
  %8 = alloca %struct.hmac_ctx_st, align 8
  %9 = alloca %struct.evp_cipher_ctx_st, align 8
  %10 = alloca [64 x i8], align 16
  %11 = alloca i32, align 4
  %12 = alloca i32, align 4
  %13 = getelementptr inbounds nuw i8, ptr %0, i64 320
  %14 = load ptr, ptr %13, align 8, !tbaa !127
  call void @llvm.lifetime.start.p0(i64 104, ptr nonnull %8) #21
  call void @HMAC_CTX_init(ptr noundef nonnull %8) #21
  call void @llvm.lifetime.start.p0(i64 152, ptr nonnull %9) #21
  call void @EVP_CIPHER_CTX_init(ptr noundef nonnull %9) #21
  store i32 0, ptr %2, align 4, !tbaa !80
  store ptr null, ptr %1, align 8, !tbaa !132
  %15 = icmp ugt i64 %6, 32
  %16 = icmp ult i64 %4, 32
  %or.cond = or i1 %16, %15
  br i1 %or.cond, label %.thread, label %17

17:                                               ; preds = %7
  %18 = getelementptr inbounds nuw i8, ptr %3, i64 16
  %19 = getelementptr inbounds nuw i8, ptr %14, i64 464
  %20 = load ptr, ptr %19, align 8, !tbaa !133
  %.not = icmp eq ptr %20, null
  br i1 %.not, label %26, label %21

21:                                               ; preds = %17
  %22 = call i32 %20(ptr noundef nonnull %0, ptr noundef %3, ptr noundef nonnull %18, ptr noundef nonnull %9, ptr noundef nonnull %8, i32 noundef 0) #21
  %23 = icmp slt i32 %22, 0
  br i1 %23, label %.thread, label %24

24:                                               ; preds = %21
  switch i32 %22, label %36 [
    i32 0, label %.thread
    i32 2, label %25
  ]

25:                                               ; preds = %24
  store i32 1, ptr %2, align 4, !tbaa !80
  br label %36

26:                                               ; preds = %17
  %27 = getelementptr inbounds nuw i8, ptr %14, i64 416
  %bcmp = call i32 @bcmp(ptr noundef nonnull dereferenceable(16) %3, ptr noundef nonnull dereferenceable(16) %27, i64 16)
  %.not66 = icmp eq i32 %bcmp, 0
  br i1 %.not66, label %28, label %.thread

28:                                               ; preds = %26
  %29 = getelementptr inbounds nuw i8, ptr %14, i64 432
  %30 = call ptr @EVP_sha256() #21
  %31 = call i32 @HMAC_Init_ex(ptr noundef nonnull %8, ptr noundef nonnull %29, i64 noundef 16, ptr noundef %30, ptr noundef null) #21
  %.not67 = icmp eq i32 %31, 0
  br i1 %.not67, label %.thread, label %32

32:                                               ; preds = %28
  %33 = call ptr @EVP_aes_128_cbc() #21
  %34 = getelementptr inbounds nuw i8, ptr %14, i64 448
  %35 = call i32 @EVP_DecryptInit_ex(ptr noundef nonnull %9, ptr noundef %33, ptr noundef null, ptr noundef nonnull %34, ptr noundef nonnull %18) #21
  %.not68 = icmp eq i32 %35, 0
  br i1 %.not68, label %.thread, label %36

36:                                               ; preds = %24, %25, %32
  %37 = call i32 @EVP_CIPHER_CTX_iv_length(ptr noundef nonnull %9) #21
  %38 = zext i32 %37 to i64
  %39 = call i64 @HMAC_size(ptr noundef nonnull %8) #21
  %40 = add i64 %39, %38
  %41 = add i64 %40, 17
  %42 = icmp ult i64 %4, %41
  br i1 %42, label %.thread, label %43

43:                                               ; preds = %36
  %44 = sub i64 %4, %39
  %45 = call i32 @HMAC_Update(ptr noundef nonnull %8, ptr noundef nonnull %3, i64 noundef %44) #21
  %46 = call i32 @HMAC_Final(ptr noundef nonnull %8, ptr noundef nonnull %10, ptr noundef null) #21
  %47 = getelementptr inbounds nuw i8, ptr %3, i64 %44
  %48 = call i32 @CRYPTO_memcmp(ptr noundef nonnull %10, ptr noundef nonnull %47, i64 noundef %39) #21
  %.not69 = icmp eq i32 %48, 0
  br i1 %.not69, label %49, label %.thread

49:                                               ; preds = %43
  %50 = getelementptr inbounds nuw i8, ptr %18, i64 %38
  %.neg77 = add i64 %4, -16
  %51 = sub i64 %.neg77, %40
  %52 = call noalias ptr @malloc(i64 noundef %51) #22
  %53 = icmp eq ptr %52, null
  br i1 %53, label %.thread, label %54

54:                                               ; preds = %49
  %55 = icmp ugt i64 %51, 2147483646
  br i1 %55, label %.thread, label %56

56:                                               ; preds = %54
  %57 = trunc nuw nsw i64 %51 to i32
  %58 = call i32 @EVP_DecryptUpdate(ptr noundef nonnull %9, ptr noundef nonnull %52, ptr noundef nonnull %11, ptr noundef nonnull %50, i32 noundef %57) #21
  %.not70 = icmp eq i32 %58, 0
  br i1 %.not70, label %64, label %59

59:                                               ; preds = %56
  %60 = load i32, ptr %11, align 4, !tbaa !80
  %61 = sext i32 %60 to i64
  %62 = getelementptr inbounds i8, ptr %52, i64 %61
  %63 = call i32 @EVP_DecryptFinal_ex(ptr noundef nonnull %9, ptr noundef nonnull %62, ptr noundef nonnull %12) #21
  %.not71 = icmp eq i32 %63, 0
  br i1 %.not71, label %64, label %65

64:                                               ; preds = %59, %56
  call void @ERR_clear_error() #21
  br label %.thread

65:                                               ; preds = %59
  %66 = load i32, ptr %11, align 4, !tbaa !80
  %67 = load i32, ptr %12, align 4, !tbaa !80
  %68 = add nsw i32 %67, %66
  %69 = sext i32 %68 to i64
  %70 = call ptr @SSL_SESSION_from_bytes(ptr noundef nonnull %52, i64 noundef %69) #21
  %71 = icmp eq ptr %70, null
  br i1 %71, label %72, label %73

72:                                               ; preds = %65
  call void @ERR_clear_error() #21
  br label %.thread

73:                                               ; preds = %65
  %74 = getelementptr inbounds nuw i8, ptr %70, i64 68
  call void @llvm.memcpy.p0.p0.i64(ptr nonnull align 4 %74, ptr align 1 %5, i64 %6, i1 false)
  %75 = trunc nuw nsw i64 %6 to i32
  %76 = getelementptr inbounds nuw i8, ptr %70, i64 64
  store i32 %75, ptr %76, align 8, !tbaa !134
  store ptr %70, ptr %1, align 8, !tbaa !132
  br label %.thread

.thread:                                          ; preds = %24, %21, %49, %28, %32, %54, %43, %36, %26, %7, %73, %72, %64
  %.056 = phi ptr [ null, %7 ], [ null, %36 ], [ null, %43 ], [ %52, %54 ], [ %52, %72 ], [ %52, %73 ], [ %52, %64 ], [ null, %26 ], [ null, %32 ], [ null, %28 ], [ null, %49 ], [ null, %21 ], [ null, %24 ]
  %.055 = phi i32 [ 1, %7 ], [ 1, %36 ], [ 1, %43 ], [ 1, %54 ], [ 1, %72 ], [ 1, %73 ], [ 1, %64 ], [ 1, %26 ], [ 0, %32 ], [ 0, %28 ], [ 0, %49 ], [ 0, %21 ], [ 1, %24 ]
  call void @free(ptr noundef %.056) #21
  call void @HMAC_CTX_cleanup(ptr noundef nonnull %8) #21
  %77 = call i32 @EVP_CIPHER_CTX_cleanup(ptr noundef nonnull %9) #21
  call void @llvm.lifetime.end.p0(i64 152, ptr nonnull %9) #21
  call void @llvm.lifetime.end.p0(i64 104, ptr nonnull %8) #21
  ret i32 %.055
}